target datalayout = "e-m:e-p270:32:32-p271:32:32-p272:64:64-i64:64-f80:128-n8:16:32:64-S128"
target triple = "x86_64-pc-linux-gnu"

@.str = private unnamed_addr constant [3 x i8] c"%d\00", align 1
@.str.1 = private unnamed_addr constant [17 x i8] c"%s%d %d %c %c %d\00", align 1
@.str.2 = private unnamed_addr constant [4 x i8] c"%s\0A\00", align 1
@.str.3 = private unnamed_addr constant [4 x i8] c"%d\0A\00", align 1

; Function Attrs: noinline nounwind uwtable
define dso_local void @main() #0 {
  %1 = alloca [1000 x [100 x i8]], align 16
  %2 = alloca [1000 x i32], align 16
  %3 = alloca [1000 x i32], align 16
  %4 = alloca [1000 x i8], align 16
  %5 = alloca [1000 x i8], align 16
  %6 = alloca [1000 x i32], align 16
  %7 = alloca [1000 x i32], align 16
  %8 = alloca i32, align 4
  %9 = alloca i32, align 4
  %10 = alloca i32, align 4
  %11 = alloca i32, align 4
  %12 = alloca i32, align 4
  %13 = call i32 (i8*, ...) @__isoc99_scanf(i8* getelementptr inbounds ([3 x i8], [3 x i8]* @.str, i64 0, i64 0), i32* %8)
  store i32 0, i32* %9, align 4
  br label %14

14:                                               ; preds = %138, %0
  %15 = load i32, i32* %9, align 4
  %16 = load i32, i32* %8, align 4
  %17 = icmp slt i32 %15, %16
  br i1 %17, label %18, label %141

18:                                               ; preds = %14
  %19 = load i32, i32* %9, align 4
  %20 = sext i32 %19 to i64
  %21 = getelementptr inbounds [1000 x [100 x i8]], [1000 x [100 x i8]]* %1, i64 0, i64 %20
  %22 = getelementptr inbounds [100 x i8], [100 x i8]* %21, i64 0, i64 0
  %23 = load i32, i32* %9, align 4
  %24 = sext i32 %23 to i64
  %25 = getelementptr inbounds [1000 x i32], [1000 x i32]* %2, i64 0, i64 %24
  %26 = load i32, i32* %9, align 4
  %27 = sext i32 %26 to i64
  %28 = getelementptr inbounds [1000 x i32], [1000 x i32]* %3, i64 0, i64 %27
  %29 = load i32, i32* %9, align 4
  %30 = sext i32 %29 to i64
  %31 = getelementptr inbounds [1000 x i8], [1000 x i8]* %4, i64 0, i64 %30
  %32 = load i32, i32* %9, align 4
  %33 = sext i32 %32 to i64
  %34 = getelementptr inbounds [1000 x i8], [1000 x i8]* %5, i64 0, i64 %33
  %35 = load i32, i32* %9, align 4
  %36 = sext i32 %35 to i64
  %37 = getelementptr inbounds [1000 x i32], [1000 x i32]* %6, i64 0, i64 %36
  %38 = call i32 (i8*, ...) @__isoc99_scanf(i8* getelementptr inbounds ([17 x i8], [17 x i8]* @.str.1, i64 0, i64 0), i8* %22, i32* %25, i32* %28, i8* %31, i8* %34, i32* %37)
  %39 = load i32, i32* %9, align 4
  %40 = sext i32 %39 to i64
  %41 = getelementptr inbounds [1000 x i32], [1000 x i32]* %7, i64 0, i64 %40
  store i32 0, i32* %41, align 4
  %42 = load i32, i32* %9, align 4
  %43 = sext i32 %42 to i64
  %44 = getelementptr inbounds [1000 x i32], [1000 x i32]* %2, i64 0, i64 %43
  %45 = load i32, i32* %44, align 4
  %46 = icmp sgt i32 %45, 80
  br i1 %46, label %47, label %57

47:                                               ; preds = %18
  %48 = load i32, i32* %9, align 4
  %49 = sext i32 %48 to i64
  %50 = getelementptr inbounds [1000 x i32], [1000 x i32]* %6, i64 0, i64 %49
  %51 = load i32, i32* %50, align 4
  %52 = icmp sge i32 %51, 1
  br i1 %52, label %53, label %57

53:                                               ; preds = %47
  %54 = load i32, i32* %9, align 4
  %55 = sext i32 %54 to i64
  %56 = getelementptr inbounds [1000 x i32], [1000 x i32]* %7, i64 0, i64 %55
  store i32 8000, i32* %56, align 4
  br label %57

57:                                               ; preds = %53, %47, %18
  %58 = load i32, i32* %9, align 4
  %59 = sext i32 %58 to i64
  %60 = getelementptr inbounds [1000 x i32], [1000 x i32]* %2, i64 0, i64 %59
  %61 = load i32, i32* %60, align 4
  %62 = icmp sgt i32 %61, 85
  br i1 %62, label %63, label %78

63:                                               ; preds = %57
  %64 = load i32, i32* %9, align 4
  %65 = sext i32 %64 to i64
  %66 = getelementptr inbounds [1000 x i32], [1000 x i32]* %3, i64 0, i64 %65
  %67 = load i32, i32* %66, align 4
  %68 = icmp sgt i32 %67, 80
  br i1 %68, label %69, label %78

69:                                               ; preds = %63
  %70 = load i32, i32* %9, align 4
  %71 = sext i32 %70 to i64
  %72 = getelementptr inbounds [1000 x i32], [1000 x i32]* %7, i64 0, i64 %71
  %73 = load i32, i32* %72, align 4
  %74 = add nsw i32 %73, 4000
  %75 = load i32, i32* %9, align 4
  %76 = sext i32 %75 to i64
  %77 = getelementptr inbounds [1000 x i32], [1000 x i32]* %7, i64 0, i64 %76
  store i32 %74, i32* %77, align 4
  br label %78

78:                                               ; preds = %69, %63, %57
  %79 = load i32, i32* %9, align 4
  %80 = sext i32 %79 to i64
  %81 = getelementptr inbounds [1000 x i32], [1000 x i32]* %2, i64 0, i64 %80
  %82 = load i32, i32* %81, align 4
  %83 = icmp sgt i32 %82, 90
  br i1 %83, label %84, label %93

84:                                               ; preds = %78
  %85 = load i32, i32* %9, align 4
  %86 = sext i32 %85 to i64
  %87 = getelementptr inbounds [1000 x i32], [1000 x i32]* %7, i64 0, i64 %86
  %88 = load i32, i32* %87, align 4
  %89 = add nsw i32 %88, 2000
  %90 = load i32, i32* %9, align 4
  %91 = sext i32 %90 to i64
  %92 = getelementptr inbounds [1000 x i32], [1000 x i32]* %7, i64 0, i64 %91
  store i32 %89, i32* %92, align 4
  br label %93

93:                                               ; preds = %84, %78
  %94 = load i32, i32* %9, align 4
  %95 = sext i32 %94 to i64
  %96 = getelementptr inbounds [1000 x i32], [1000 x i32]* %2, i64 0, i64 %95
  %97 = load i32, i32* %96, align 4
  %98 = icmp sgt i32 %97, 85
  br i1 %98, label %99, label %115

99:                                               ; preds = %93
  %100 = load i32, i32* %9, align 4
  %101 = sext i32 %100 to i64
  %102 = getelementptr inbounds [1000 x i8], [1000 x i8]* %5, i64 0, i64 %101
  %103 = load i8, i8* %102, align 1
  %104 = sext i8 %103 to i32
  %105 = icmp eq i32 %104, 89
  br i1 %105, label %106, label %115

106:                                              ; preds = %99
  %107 = load i32, i32* %9, align 4
  %108 = sext i32 %107 to i64
  %109 = getelementptr inbounds [1000 x i32], [1000 x i32]* %7, i64 0, i64 %108
  %110 = load i32, i32* %109, align 4
  %111 = add nsw i32 %110, 1000
  %112 = load i32, i32* %9, align 4
  %113 = sext i32 %112 to i64
  %114 = getelementptr inbounds [1000 x i32], [1000 x i32]* %7, i64 0, i64 %113
  store i32 %111, i32* %114, align 4
  br label %115

115:                                              ; preds = %106, %99, %93
  %116 = load i32, i32* %9, align 4
  %117 = sext i32 %116 to i64
  %118 = getelementptr inbounds [1000 x i32], [1000 x i32]* %3, i64 0, i64 %117
  %119 = load i32, i32* %118, align 4
  %120 = icmp sgt i32 %119, 80
  br i1 %120, label %121, label %137

121:                                              ; preds = %115
  %122 = load i32, i32* %9, align 4
  %123 = sext i32 %122 to i64
  %124 = getelementptr inbounds [1000 x i8], [1000 x i8]* %4, i64 0, i64 %123
  %125 = load i8, i8* %124, align 1
  %126 = sext i8 %125 to i32
  %127 = icmp eq i32 %126, 89
  br i1 %127, label %128, label %137

128:                                              ; preds = %121
  %129 = load i32, i32* %9, align 4
  %130 = sext i32 %129 to i64
  %131 = getelementptr inbounds [1000 x i32], [1000 x i32]* %7, i64 0, i64 %130
  %132 = load i32, i32* %131, align 4
  %133 = add nsw i32 %132, 850
  %134 = load i32, i32* %9, align 4
  %135 = sext i32 %134 to i64
  %136 = getelementptr inbounds [1000 x i32], [1000 x i32]* %7, i64 0, i64 %135
  store i32 %133, i32* %136, align 4
  br label %137

137:                                              ; preds = %128, %121, %115
  br label %138

138:                                              ; preds = %137
  %139 = load i32, i32* %9, align 4
  %140 = add nsw i32 %139, 1
  store i32 %140, i32* %9, align 4
  br label %14

141:                                              ; preds = %14
  %142 = getelementptr inbounds [1000 x i32], [1000 x i32]* %7, i64 0, i64 0
  %143 = load i32, i32* %142, align 16
  store i32 %143, i32* %10, align 4
  store i32 0, i32* %11, align 4
  store i32 0, i32* %9, align 4
  br label %144

144:                                              ; preds = %162, %141
  %145 = load i32, i32* %9, align 4
  %146 = load i32, i32* %8, align 4
  %147 = icmp slt i32 %145, %146
  br i1 %147, label %148, label %165

148:                                              ; preds = %144
  %149 = load i32, i32* %9, align 4
  %150 = sext i32 %149 to i64
  %151 = getelementptr inbounds [1000 x i32], [1000 x i32]* %7, i64 0, i64 %150
  %152 = load i32, i32* %151, align 4
  %153 = load i32, i32* %10, align 4
  %154 = icmp sgt i32 %152, %153
  br i1 %154, label %155, label %161

155:                                              ; preds = %148
  %156 = load i32, i32* %9, align 4
  %157 = sext i32 %156 to i64
  %158 = getelementptr inbounds [1000 x i32], [1000 x i32]* %7, i64 0, i64 %157
  %159 = load i32, i32* %158, align 4
  store i32 %159, i32* %10, align 4
  %160 = load i32, i32* %9, align 4
  store i32 %160, i32* %11, align 4
  br label %161

161:                                              ; preds = %155, %148
  br label %162

162:                                              ; preds = %161
  %163 = load i32, i32* %9, align 4
  %164 = add nsw i32 %163, 1
  store i32 %164, i32* %9, align 4
  br label %144

165:                                              ; preds = %144
  store i32 0, i32* %12, align 4
  store i32 0, i32* %9, align 4
  br label %166

166:                                              ; preds = %177, %165
  %167 = load i32, i32* %9, align 4
  %168 = load i32, i32* %8, align 4
  %169 = icmp slt i32 %167, %168
  br i1 %169, label %170, label %180

170:                                              ; preds = %166
  %171 = load i32, i32* %12, align 4
  %172 = load i32, i32* %9, align 4
  %173 = sext i32 %172 to i64
  %174 = getelementptr inbounds [1000 x i32], [1000 x i32]* %7, i64 0, i64 %173
  %175 = load i32, i32* %174, align 4
  %176 = add nsw i32 %171, %175
  store i32 %176, i32* %12, align 4
  br label %177

177:                                              ; preds = %170
  %178 = load i32, i32* %9, align 4
  %179 = add nsw i32 %178, 1
  store i32 %179, i32* %9, align 4
  br label %166

180:                                              ; preds = %166
  %181 = load i32, i32* %11, align 4
  %182 = sext i32 %181 to i64
  %183 = getelementptr inbounds [1000 x [100 x i8]], [1000 x [100 x i8]]* %1, i64 0, i64 %182
  %184 = getelementptr inbounds [100 x i8], [100 x i8]* %183, i64 0, i64 0
  %185 = call i32 (i8*, ...) @printf(i8* getelementptr inbounds ([4 x i8], [4 x i8]* @.str.2, i64 0, i64 0), i8* %184)
  %186 = load i32, i32* %11, align 4
  %187 = sext i32 %186 to i64
  %188 = getelementptr inbounds [1000 x i32], [1000 x i32]* %7, i64 0, i64 %187
  %189 = load i32, i32* %188, align 4
  %190 = call i32 (i8*, ...) @printf(i8* getelementptr inbounds ([4 x i8], [4 x i8]* @.str.3, i64 0, i64 0), i32 %189)
  %191 = load i32, i32* %12, align 4
  %192 = call i32 (i8*, ...) @printf(i8* getelementptr inbounds ([4 x i8], [4 x i8]* @.str.3, i64 0, i64 0), i32 %191)
  ret void
}